; Function Attrs: null_pointer_is_valid sspstrong uwtable
define internal i32 @dissect_t124_ChannelId(ptr noundef %0, i32 noundef %1, ptr noundef %2, ptr noundef %3, i32 noundef %4) #0 {
  %6 = tail call i32 @dissect_per_constrained_integer(ptr noundef %0, i32 noundef %1, ptr noundef %2, ptr noundef %3, i32 noundef %4, i32 noundef 0, i32 noundef 65535, ptr noundef nonnull @channelId, i1 noundef zeroext false)
  %7 = load i32, ptr @hf_t124_channelId_03, align 4
  %8 = icmp eq i32 %4, %7
  br i1 %8, label %9, label %15

9:                                                ; preds = %5
  %10 = getelementptr inbounds nuw i8, ptr %2, i64 16
  %11 = load ptr, ptr %10, align 8
  %12 = getelementptr inbounds nuw i8, ptr %11, i64 8
  %13 = load ptr, ptr %12, align 8
  %14 = load i32, ptr @channelId, align 4
  tail call void (ptr, i32, ptr, ...) @col_append_fstr(ptr noundef %13, i32 noundef 25, ptr noundef nonnull @.str.486, i32 noundef %14)
  br label %15

15:                                               ; preds = %9, %5
  ret i32 %6
}